; Function Attrs: nounwind uwtable
define void @Gia_ManSimInfoEval(ptr noundef readonly captures(none) %0, ptr noundef %1, ptr noundef %2, i32 noundef %3, i32 noundef %4) local_unnamed_addr #0 {
  %6 = alloca %struct.timespec, align 8
  %7 = alloca %struct.timespec, align 8
  call void @llvm.lifetime.start.p0(i64 16, ptr nonnull %7) #24
  %8 = call i32 @clock_gettime(i32 noundef 1, ptr noundef nonnull %7) #24
  %9 = icmp slt i32 %8, 0
  br i1 %9, label %Abc_Clock.exit, label %10

10:                                               ; preds = %5
  %11 = load i64, ptr %7, align 8, !tbaa !88
  %.neg24 = mul i64 %11, -1000000
  %12 = getelementptr inbounds nuw i8, ptr %7, i64 8
  %13 = load i64, ptr %12, align 8, !tbaa !90
  %.neg = sdiv i64 %13, -1000
  %.neg25 = add i64 %.neg, %.neg24
  br label %Abc_Clock.exit

Abc_Clock.exit:                                   ; preds = %5, %10
  %.0.i.neg = phi i64 [ %.neg25, %10 ], [ 1, %5 ]
  call void @llvm.lifetime.end.p0(i64 16, ptr nonnull %7) #24
  %14 = call fastcc ptr @Vec_WrdReadBin(ptr noundef %1, i32 noundef %4)
  %15 = call ptr @Vec_WrdReadNumsOut(ptr noundef %2, i32 noundef %4)
  %.not = icmp eq i32 %4, 0
  br i1 %.not, label %.critedge, label %16

16:                                               ; preds = %Abc_Clock.exit
  %17 = getelementptr i8, ptr %14, i64 8
  %.val = load ptr, ptr %17, align 8, !tbaa !59
  %18 = getelementptr i8, ptr %14, i64 4
  %.val16 = load i32, ptr %18, align 4, !tbaa !60
  %19 = icmp sgt i32 %.val16, 0
  br i1 %19, label %.lr.ph.preheader.i, label %Abc_TtCountOnesVec.exit

.lr.ph.preheader.i:                               ; preds = %16
  %wide.trip.count.i = zext nneg i32 %.val16 to i64
  br label %.lr.ph.i

.lr.ph.i:                                         ; preds = %Abc_TtCountOnes2.exit.i, %.lr.ph.preheader.i
  %indvars.iv.i = phi i64 [ 0, %.lr.ph.preheader.i ], [ %indvars.iv.next.i, %Abc_TtCountOnes2.exit.i ]
  %.08.i = phi i32 [ 0, %.lr.ph.preheader.i ], [ %42, %Abc_TtCountOnes2.exit.i ]
  %20 = getelementptr inbounds nuw i64, ptr %.val, i64 %indvars.iv.i
  %21 = load i64, ptr %20, align 8, !tbaa !62
  %.not.i.i = icmp eq i64 %21, 0
  br i1 %.not.i.i, label %Abc_TtCountOnes2.exit.i, label %22

22:                                               ; preds = %.lr.ph.i
  %23 = lshr i64 %21, 1
  %24 = and i64 %23, 6148914691236517205
  %25 = sub i64 %21, %24
  %26 = and i64 %25, 3689348814741910323
  %27 = lshr i64 %25, 2
  %28 = and i64 %27, 3689348814741910323
  %29 = add nuw nsw i64 %28, %26
  %30 = lshr i64 %29, 4
  %31 = add nuw nsw i64 %30, %29
  %32 = and i64 %31, 1085102592571150095
  %33 = lshr i64 %32, 8
  %34 = add nuw nsw i64 %33, %32
  %35 = lshr i64 %34, 16
  %36 = add nuw nsw i64 %35, %34
  %37 = lshr i64 %36, 32
  %38 = add nuw nsw i64 %37, %36
  %39 = trunc i64 %38 to i32
  %40 = and i32 %39, 255
  br label %Abc_TtCountOnes2.exit.i

Abc_TtCountOnes2.exit.i:                          ; preds = %22, %.lr.ph.i
  %41 = phi i32 [ %40, %22 ], [ 0, %.lr.ph.i ]
  %42 = add nuw nsw i32 %41, %.08.i
  %indvars.iv.next.i = add nuw nsw i64 %indvars.iv.i, 1
  %exitcond.not.i = icmp eq i64 %indvars.iv.next.i, %wide.trip.count.i
  br i1 %exitcond.not.i, label %Abc_TtCountOnesVec.exit.loopexit, label %.lr.ph.i, !llvm.loop !80

Abc_TtCountOnesVec.exit.loopexit:                 ; preds = %Abc_TtCountOnes2.exit.i
  %43 = uitofp nneg i32 %42 to float
  br label %Abc_TtCountOnesVec.exit

Abc_TtCountOnesVec.exit:                          ; preds = %Abc_TtCountOnesVec.exit.loopexit, %16
  %.0.lcssa.i = phi float [ 0.000000e+00, %16 ], [ %43, %Abc_TtCountOnesVec.exit.loopexit ]
  %44 = shl nsw i32 %.val16, 6
  %45 = sitofp i32 %44 to float
  %46 = fdiv float %.0.lcssa.i, %45
  %47 = fpext float %46 to double
  %48 = call i32 (ptr, ...) @printf(ptr noundef nonnull dereferenceable(1) @.str.21, double noundef %47)
  %49 = call i32 @Gia_ManSimEvalOne3(ptr noundef %0, ptr noundef %14, ptr noundef %15, i32 noundef %3)
  %.not.i = icmp eq ptr %.val, null
  br i1 %.not.i, label %Vec_WrdFree.exit, label %50

50:                                               ; preds = %Abc_TtCountOnesVec.exit
  call void @free(ptr noundef nonnull %.val) #24
  br label %Vec_WrdFree.exit

Vec_WrdFree.exit:                                 ; preds = %Abc_TtCountOnesVec.exit, %50
  call void @free(ptr noundef nonnull %14) #24
  %51 = getelementptr inbounds nuw i8, ptr %15, i64 8
  %52 = load ptr, ptr %51, align 8, !tbaa !17
  %.not.i17 = icmp eq ptr %52, null
  br i1 %.not.i17, label %Vec_IntFree.exit, label %53

53:                                               ; preds = %Vec_WrdFree.exit
  call void @free(ptr noundef nonnull %52) #24
  br label %Vec_IntFree.exit

Vec_IntFree.exit:                                 ; preds = %Vec_WrdFree.exit, %53
  call void @free(ptr noundef nonnull %15) #24
  call void @llvm.lifetime.start.p0(i64 16, ptr nonnull %6) #24
  %54 = call i32 @clock_gettime(i32 noundef 1, ptr noundef nonnull %6) #24
  %55 = icmp slt i32 %54, 0
  br i1 %55, label %Abc_Clock.exit19, label %56

56:                                               ; preds = %Vec_IntFree.exit
  %57 = load i64, ptr %6, align 8, !tbaa !88
  %58 = mul nsw i64 %57, 1000000
  %59 = getelementptr inbounds nuw i8, ptr %6, i64 8
  %60 = load i64, ptr %59, align 8, !tbaa !90
  %61 = sdiv i64 %60, 1000
  %62 = add nsw i64 %61, %58
  br label %Abc_Clock.exit19

Abc_Clock.exit19:                                 ; preds = %Vec_IntFree.exit, %56
  %.0.i18 = phi i64 [ %62, %56 ], [ -1, %Vec_IntFree.exit ]
  call void @llvm.lifetime.end.p0(i64 16, ptr nonnull %6) #24
  %63 = add i64 %.0.i18, %.0.i.neg
  call void (i32, ptr, ...) @Abc_Print(i32 poison, ptr noundef nonnull @.str.46, ptr noundef nonnull @.str.22)
  %64 = sitofp i64 %63 to double
  %65 = fdiv double %64, 1.000000e+06
  call void (i32, ptr, ...) @Abc_Print(i32 poison, ptr noundef nonnull @.str.47, double noundef %65)
  br label %73

.critedge:                                        ; preds = %Abc_Clock.exit
  %66 = call i32 @Gia_ManSimEvalOne3(ptr noundef %0, ptr noundef %14, ptr noundef %15, i32 noundef %3)
  %67 = getelementptr inbounds nuw i8, ptr %14, i64 8
  %68 = load ptr, ptr %67, align 8, !tbaa !59
  %.not.i20 = icmp eq ptr %68, null
  br i1 %.not.i20, label %Vec_WrdFree.exit21, label %69

69:                                               ; preds = %.critedge
  call void @free(ptr noundef nonnull %68) #24
  br label %Vec_WrdFree.exit21

Vec_WrdFree.exit21:                               ; preds = %.critedge, %69
  call void @free(ptr noundef nonnull %14) #24
  %70 = getelementptr inbounds nuw i8, ptr %15, i64 8
  %71 = load ptr, ptr %70, align 8, !tbaa !17
  %.not.i22 = icmp eq ptr %71, null
  br i1 %.not.i22, label %Vec_IntFree.exit23, label %72

72:                                               ; preds = %Vec_WrdFree.exit21
  call void @free(ptr noundef nonnull %71) #24
  br label %Vec_IntFree.exit23

Vec_IntFree.exit23:                               ; preds = %Vec_WrdFree.exit21, %72
  call void @free(ptr noundef nonnull %15) #24
  br label %73

73:                                               ; preds = %Vec_IntFree.exit23, %Abc_Clock.exit19
  ret void
}